target datalayout = "e-m:e-p270:32:32-p271:32:32-p272:64:64-i64:64-i128:128-f80:128-n8:16:32:64-S128"
target triple = "x86_64-pc-linux-gnu"

%struct.SDL_AtomicInt = type { i32 }
%struct.SDL_Window = type { i32, ptr, ptr, i32, i32, i32, i32, i32, i32, i32, i32, float, float, i32, i32, i64, i64, float, i8, i8, i32, i32, %struct.SDL_Rect, %struct.SDL_Rect, %struct.SDL_Rect, i8, i8, i8, %struct.SDL_DisplayMode, %struct.SDL_DisplayMode, %struct.SDL_HDROutputProperties, float, ptr, i8, i8, i8, i8, i8, i8, i8, i8, i8, i32, i32, i32, i32, %struct.SDL_Rect, i32, i8, %struct.SDL_Rect, i32, %struct.SDL_Rect, ptr, ptr, i32, float, i32, i32, ptr, ptr, ptr, ptr, ptr, ptr, ptr, ptr, ptr }
%struct.SDL_DisplayMode = type { i32, i32, i32, i32, float, float, i32, i32, ptr }
%struct.SDL_HDROutputProperties = type { float, float }
%struct.SDL_Rect = type { i32, i32, i32, i32 }
%struct.SDL_VideoDevice = type { ptr, ptr, ptr, ptr, ptr, ptr, ptr, ptr, ptr, ptr, ptr, ptr, ptr, ptr, ptr, ptr, ptr, ptr, ptr, ptr, ptr, ptr, ptr, ptr, ptr, ptr, ptr, ptr, ptr, ptr, ptr, ptr, ptr, ptr, ptr, ptr, ptr, ptr, ptr, ptr, ptr, ptr, ptr, ptr, ptr, ptr, ptr, ptr, ptr, ptr, ptr, ptr, ptr, ptr, ptr, ptr, ptr, ptr, ptr, ptr, ptr, ptr, ptr, ptr, ptr, ptr, ptr, ptr, ptr, ptr, ptr, ptr, ptr, ptr, ptr, ptr, ptr, ptr, ptr, ptr, ptr, ptr, ptr, ptr, ptr, ptr, ptr, ptr, ptr, ptr, ptr, ptr, ptr, ptr, ptr, ptr, ptr, i64, i8, i8, i8, ptr, i32, ptr, %struct.SDL_Rect, ptr, ptr, i32, ptr, ptr, ptr, ptr, i64, ptr, i8, i32, i32, %struct.anon, ptr, ptr, ptr, ptr, ptr, ptr, %struct.SDL_AtomicInt, %struct.SDL_AtomicInt, i8, %struct.anon.0, ptr, ptr, ptr, ptr, ptr }
%struct.anon = type { i32, i32, i32, i32, i32, i32, i32, i32, i32, i32, i32, i32, i32, i32, i32, i32, i32, i32, i32, i32, i32, i32, i32, i32, i32, i32, i32, i32, i32, [256 x i8], ptr }
%struct.anon.0 = type { ptr, ptr, i32, [256 x i8], ptr }
%struct.SDL_Mouse = type { ptr, ptr, ptr, ptr, ptr, ptr, ptr, ptr, ptr, ptr, ptr, ptr, ptr, ptr, i8, float, float, ptr, float, float, float, float, float, float, float, float, double, double, i8, i8, i8, i8, i8, i8, i8, i8, i64, i8, float, i8, float, i8, i32, i32, i8, i8, i8, i8, i8, i8, i8, i8, i8, ptr, i32, ptr, ptr, ptr, ptr, i8, ptr }

@_this = internal global ptr null, align 8

; Function Attrs: nounwind uwtable
define hidden void @SDL_UpdateWindowGrab(ptr noundef %0) #0 {
  %2 = alloca ptr, align 8
  %3 = alloca i8, align 1
  %4 = alloca i8, align 1
  store ptr %0, ptr %2, align 8
  call void @llvm.lifetime.start.p0(i64 1, ptr %3) #10
  call void @llvm.lifetime.start.p0(i64 1, ptr %4) #10
  %5 = load ptr, ptr %2, align 8
  %6 = getelementptr inbounds nuw %struct.SDL_Window, ptr %5, i32 0, i32 15
  %7 = load i64, ptr %6, align 8
  %8 = and i64 %7, 512
  %9 = icmp ne i64 %8, 0
  br i1 %9, label %10, label %32

10:                                               ; preds = %1
  %11 = call ptr @SDL_GetMouse()
  %12 = getelementptr inbounds nuw %struct.SDL_Mouse, ptr %11, i32 0, i32 29
  %13 = load i8, ptr %12, align 1, !range !5, !noundef !6
  %14 = trunc i8 %13 to i1
  br i1 %14, label %21, label %15

15:                                               ; preds = %10
  %16 = load ptr, ptr %2, align 8
  %17 = getelementptr inbounds nuw %struct.SDL_Window, ptr %16, i32 0, i32 15
  %18 = load i64, ptr %17, align 8
  %19 = and i64 %18, 256
  %20 = icmp ne i64 %19, 0
  br i1 %20, label %21, label %22

21:                                               ; preds = %15, %10
  store i8 1, ptr %4, align 1
  br label %23

22:                                               ; preds = %15
  store i8 0, ptr %4, align 1
  br label %23

23:                                               ; preds = %22, %21
  %24 = load ptr, ptr %2, align 8
  %25 = getelementptr inbounds nuw %struct.SDL_Window, ptr %24, i32 0, i32 15
  %26 = load i64, ptr %25, align 8
  %27 = and i64 %26, 1048576
  %28 = icmp ne i64 %27, 0
  br i1 %28, label %29, label %30

29:                                               ; preds = %23
  store i8 1, ptr %3, align 1
  br label %31

30:                                               ; preds = %23
  store i8 0, ptr %3, align 1
  br label %31

31:                                               ; preds = %30, %29
  br label %33

32:                                               ; preds = %1
  store i8 0, ptr %4, align 1
  store i8 0, ptr %3, align 1
  br label %33

33:                                               ; preds = %32, %31
  %34 = load i8, ptr %4, align 1, !range !5, !noundef !6
  %35 = trunc i8 %34 to i1
  br i1 %35, label %39, label %36

36:                                               ; preds = %33
  %37 = load i8, ptr %3, align 1, !range !5, !noundef !6
  %38 = trunc i8 %37 to i1
  br i1 %38, label %39, label %89

39:                                               ; preds = %36, %33
  %40 = load ptr, ptr @_this, align 8
  %41 = getelementptr inbounds nuw %struct.SDL_VideoDevice, ptr %40, i32 0, i32 106
  %42 = load ptr, ptr %41, align 8
  %43 = icmp ne ptr %42, null
  br i1 %43, label %44, label %85

44:                                               ; preds = %39
  %45 = load ptr, ptr @_this, align 8
  %46 = getelementptr inbounds nuw %struct.SDL_VideoDevice, ptr %45, i32 0, i32 106
  %47 = load ptr, ptr %46, align 8
  %48 = load ptr, ptr %2, align 8
  %49 = icmp ne ptr %47, %48
  br i1 %49, label %50, label %85

50:                                               ; preds = %44
  %51 = load ptr, ptr @_this, align 8
  %52 = getelementptr inbounds nuw %struct.SDL_VideoDevice, ptr %51, i32 0, i32 106
  %53 = load ptr, ptr %52, align 8
  %54 = getelementptr inbounds nuw %struct.SDL_Window, ptr %53, i32 0, i32 15
  %55 = load i64, ptr %54, align 8
  %56 = and i64 %55, -1048833
  store i64 %56, ptr %54, align 8
  %57 = load ptr, ptr @_this, align 8
  %58 = getelementptr inbounds nuw %struct.SDL_VideoDevice, ptr %57, i32 0, i32 36
  %59 = load ptr, ptr %58, align 8
  %60 = icmp ne ptr %59, null
  br i1 %60, label %61, label %70

61:                                               ; preds = %50
  %62 = load ptr, ptr @_this, align 8
  %63 = getelementptr inbounds nuw %struct.SDL_VideoDevice, ptr %62, i32 0, i32 36
  %64 = load ptr, ptr %63, align 8
  %65 = load ptr, ptr @_this, align 8
  %66 = load ptr, ptr @_this, align 8
  %67 = getelementptr inbounds nuw %struct.SDL_VideoDevice, ptr %66, i32 0, i32 106
  %68 = load ptr, ptr %67, align 8
  %69 = call zeroext i1 %64(ptr noundef %65, ptr noundef %68, i1 noundef zeroext false)
  br label %70

70:                                               ; preds = %61, %50
  %71 = load ptr, ptr @_this, align 8
  %72 = getelementptr inbounds nuw %struct.SDL_VideoDevice, ptr %71, i32 0, i32 37
  %73 = load ptr, ptr %72, align 8
  %74 = icmp ne ptr %73, null
  br i1 %74, label %75, label %84

75:                                               ; preds = %70
  %76 = load ptr, ptr @_this, align 8
  %77 = getelementptr inbounds nuw %struct.SDL_VideoDevice, ptr %76, i32 0, i32 37
  %78 = load ptr, ptr %77, align 8
  %79 = load ptr, ptr @_this, align 8
  %80 = load ptr, ptr @_this, align 8
  %81 = getelementptr inbounds nuw %struct.SDL_VideoDevice, ptr %80, i32 0, i32 106
  %82 = load ptr, ptr %81, align 8
  %83 = call zeroext i1 %78(ptr noundef %79, ptr noundef %82, i1 noundef zeroext false)
  br label %84

84:                                               ; preds = %75, %70
  br label %85

85:                                               ; preds = %84, %44, %39
  %86 = load ptr, ptr %2, align 8
  %87 = load ptr, ptr @_this, align 8
  %88 = getelementptr inbounds nuw %struct.SDL_VideoDevice, ptr %87, i32 0, i32 106
  store ptr %86, ptr %88, align 8
  br label %99

89:                                               ; preds = %36
  %90 = load ptr, ptr @_this, align 8
  %91 = getelementptr inbounds nuw %struct.SDL_VideoDevice, ptr %90, i32 0, i32 106
  %92 = load ptr, ptr %91, align 8
  %93 = load ptr, ptr %2, align 8
  %94 = icmp eq ptr %92, %93
  br i1 %94, label %95, label %98

95:                                               ; preds = %89
  %96 = load ptr, ptr @_this, align 8
  %97 = getelementptr inbounds nuw %struct.SDL_VideoDevice, ptr %96, i32 0, i32 106
  store ptr null, ptr %97, align 8
  br label %98

98:                                               ; preds = %95, %89
  br label %99

99:                                               ; preds = %98, %85
  %100 = load ptr, ptr @_this, align 8
  %101 = getelementptr inbounds nuw %struct.SDL_VideoDevice, ptr %100, i32 0, i32 36
  %102 = load ptr, ptr %101, align 8
  %103 = icmp ne ptr %102, null
  br i1 %103, label %104, label %119

104:                                              ; preds = %99
  %105 = load ptr, ptr @_this, align 8
  %106 = getelementptr inbounds nuw %struct.SDL_VideoDevice, ptr %105, i32 0, i32 36
  %107 = load ptr, ptr %106, align 8
  %108 = load ptr, ptr @_this, align 8
  %109 = load ptr, ptr %2, align 8
  %110 = load i8, ptr %4, align 1, !range !5, !noundef !6
  %111 = trunc i8 %110 to i1
  %112 = call zeroext i1 %107(ptr noundef %108, ptr noundef %109, i1 noundef zeroext %111)
  br i1 %112, label %118, label %113

113:                                              ; preds = %104
  %114 = load ptr, ptr %2, align 8
  %115 = getelementptr inbounds nuw %struct.SDL_Window, ptr %114, i32 0, i32 15
  %116 = load i64, ptr %115, align 8
  %117 = and i64 %116, -257
  store i64 %117, ptr %115, align 8
  br label %118

118:                                              ; preds = %113, %104
  br label %119

119:                                              ; preds = %118, %99
  %120 = load ptr, ptr @_this, align 8
  %121 = getelementptr inbounds nuw %struct.SDL_VideoDevice, ptr %120, i32 0, i32 37
  %122 = load ptr, ptr %121, align 8
  %123 = icmp ne ptr %122, null
  br i1 %123, label %124, label %139

124:                                              ; preds = %119
  %125 = load ptr, ptr @_this, align 8
  %126 = getelementptr inbounds nuw %struct.SDL_VideoDevice, ptr %125, i32 0, i32 37
  %127 = load ptr, ptr %126, align 8
  %128 = load ptr, ptr @_this, align 8
  %129 = load ptr, ptr %2, align 8
  %130 = load i8, ptr %3, align 1, !range !5, !noundef !6
  %131 = trunc i8 %130 to i1
  %132 = call zeroext i1 %127(ptr noundef %128, ptr noundef %129, i1 noundef zeroext %131)
  br i1 %132, label %138, label %133

133:                                              ; preds = %124
  %134 = load ptr, ptr %2, align 8
  %135 = getelementptr inbounds nuw %struct.SDL_Window, ptr %134, i32 0, i32 15
  %136 = load i64, ptr %135, align 8
  %137 = and i64 %136, -1048577
  store i64 %137, ptr %135, align 8
  br label %138

138:                                              ; preds = %133, %124
  br label %139

139:                                              ; preds = %138, %119
  %140 = load ptr, ptr @_this, align 8
  %141 = getelementptr inbounds nuw %struct.SDL_VideoDevice, ptr %140, i32 0, i32 106
  %142 = load ptr, ptr %141, align 8
  %143 = icmp ne ptr %142, null
  br i1 %143, label %144, label %155

144:                                              ; preds = %139
  %145 = load ptr, ptr @_this, align 8
  %146 = getelementptr inbounds nuw %struct.SDL_VideoDevice, ptr %145, i32 0, i32 106
  %147 = load ptr, ptr %146, align 8
  %148 = getelementptr inbounds nuw %struct.SDL_Window, ptr %147, i32 0, i32 15
  %149 = load i64, ptr %148, align 8
  %150 = and i64 %149, 1048832
  %151 = icmp ne i64 %150, 0
  br i1 %151, label %155, label %152

152:                                              ; preds = %144
  %153 = load ptr, ptr @_this, align 8
  %154 = getelementptr inbounds nuw %struct.SDL_VideoDevice, ptr %153, i32 0, i32 106
  store ptr null, ptr %154, align 8
  br label %155

155:                                              ; preds = %152, %144, %139
  call void @llvm.lifetime.end.p0(i64 1, ptr %4) #10
  call void @llvm.lifetime.end.p0(i64 1, ptr %3) #10
  ret void
}