; Function Attrs: nounwind uwtable
define hidden void @SDL_UpdateWindowGrab(ptr noundef %0) local_unnamed_addr #0 {
  %2 = getelementptr inbounds nuw i8, ptr %0, i64 72
  %3 = load i64, ptr %2, align 8
  %4 = and i64 %3, 512
  %.not = icmp eq i64 %4, 0
  br i1 %.not, label %13, label %5

5:                                                ; preds = %1
  %6 = tail call ptr @SDL_GetMouse() #19
  %7 = getelementptr inbounds nuw i8, ptr %6, i64 185
  %8 = load i8, ptr %7, align 1, !range !6, !noundef !7
  %9 = trunc nuw i8 %8 to i1
  %.pre = load i64, ptr %2, align 8
  %10 = and i64 %.pre, 256
  %11 = icmp ne i64 %10, 0
  %.0 = select i1 %9, i1 true, i1 %11
  %12 = and i64 %.pre, 1048576
  %.not22 = icmp ne i64 %12, 0
  br label %13

13:                                               ; preds = %1, %5
  %.014 = phi i1 [ %.not22, %5 ], [ false, %1 ]
  %.1 = phi i1 [ %.0, %5 ], [ false, %1 ]
  %or.cond = or i1 %.014, %.1
  %14 = load ptr, ptr @_this, align 8
  %15 = getelementptr inbounds nuw i8, ptr %14, i64 840
  %16 = load ptr, ptr %15, align 8
  br i1 %or.cond, label %17, label %38

17:                                               ; preds = %13
  %.not23 = icmp eq ptr %16, null
  %.not24 = icmp eq ptr %16, %0
  %or.cond31 = or i1 %.not23, %.not24
  br i1 %or.cond31, label %35, label %18

18:                                               ; preds = %17
  %19 = getelementptr inbounds nuw i8, ptr %16, i64 72
  %20 = load i64, ptr %19, align 8
  %21 = and i64 %20, -1048833
  store i64 %21, ptr %19, align 8
  %22 = getelementptr inbounds nuw i8, ptr %14, i64 288
  %23 = load ptr, ptr %22, align 8
  %.not25 = icmp eq ptr %23, null
  br i1 %.not25, label %27, label %24

24:                                               ; preds = %18
  %25 = load ptr, ptr %15, align 8
  %26 = tail call zeroext i1 %23(ptr noundef nonnull %14, ptr noundef %25, i1 noundef zeroext false) #19
  %.pre32 = load ptr, ptr @_this, align 8
  br label %27

27:                                               ; preds = %24, %18
  %28 = phi ptr [ %.pre32, %24 ], [ %14, %18 ]
  %29 = getelementptr inbounds nuw i8, ptr %28, i64 296
  %30 = load ptr, ptr %29, align 8
  %.not26 = icmp eq ptr %30, null
  br i1 %.not26, label %35, label %31

31:                                               ; preds = %27
  %32 = getelementptr inbounds nuw i8, ptr %28, i64 840
  %33 = load ptr, ptr %32, align 8
  %34 = tail call zeroext i1 %30(ptr noundef nonnull %28, ptr noundef %33, i1 noundef zeroext false) #19
  %.pre33 = load ptr, ptr @_this, align 8
  br label %35

35:                                               ; preds = %27, %31, %17
  %36 = phi ptr [ %28, %27 ], [ %.pre33, %31 ], [ %14, %17 ]
  %37 = getelementptr inbounds nuw i8, ptr %36, i64 840
  store ptr %0, ptr %37, align 8
  br label %41

38:                                               ; preds = %13
  %39 = icmp eq ptr %16, %0
  br i1 %39, label %40, label %41

40:                                               ; preds = %38
  store ptr null, ptr %15, align 8
  br label %41

41:                                               ; preds = %38, %40, %35
  %42 = phi ptr [ %14, %38 ], [ %14, %40 ], [ %36, %35 ]
  %43 = getelementptr inbounds nuw i8, ptr %42, i64 288
  %44 = load ptr, ptr %43, align 8
  %.not27 = icmp eq ptr %44, null
  br i1 %.not27, label %50, label %45

45:                                               ; preds = %41
  %46 = tail call zeroext i1 %44(ptr noundef nonnull %42, ptr noundef nonnull %0, i1 noundef zeroext %.1) #19
  br i1 %46, label %50, label %47

47:                                               ; preds = %45
  %48 = load i64, ptr %2, align 8
  %49 = and i64 %48, -257
  store i64 %49, ptr %2, align 8
  br label %50

50:                                               ; preds = %45, %47, %41
  %51 = load ptr, ptr @_this, align 8
  %52 = getelementptr inbounds nuw i8, ptr %51, i64 296
  %53 = load ptr, ptr %52, align 8
  %.not28 = icmp eq ptr %53, null
  br i1 %.not28, label %59, label %54

54:                                               ; preds = %50
  %55 = tail call zeroext i1 %53(ptr noundef nonnull %51, ptr noundef nonnull %0, i1 noundef zeroext %.014) #19
  br i1 %55, label %59, label %56

56:                                               ; preds = %54
  %57 = load i64, ptr %2, align 8
  %58 = and i64 %57, -1048577
  store i64 %58, ptr %2, align 8
  br label %59

59:                                               ; preds = %54, %56, %50
  %60 = load ptr, ptr @_this, align 8
  %61 = getelementptr inbounds nuw i8, ptr %60, i64 840
  %62 = load ptr, ptr %61, align 8
  %.not29 = icmp eq ptr %62, null
  br i1 %.not29, label %68, label %63

63:                                               ; preds = %59
  %64 = getelementptr inbounds nuw i8, ptr %62, i64 72
  %65 = load i64, ptr %64, align 8
  %66 = and i64 %65, 1048832
  %.not30 = icmp eq i64 %66, 0
  br i1 %.not30, label %67, label %68

67:                                               ; preds = %63
  store ptr null, ptr %61, align 8
  br label %68

68:                                               ; preds = %67, %63, %59
  ret void
}